	.file	"alloca-clang.i"
                                        # Start of file scope inline assembly
.pushsection .allocs_srcallocs,"a",@progbits
	.ascii "/home/zoltan/Develop/liballocs/tests/alloca-clang/alloca-clang.c\t41\t41\t__builtin_alloca\t__uniqtype__int\t1\n"
	.popsection

                                        # End of file scope inline assembly
	.file	1 "/home/zoltan/Develop/liballocs/tests/alloca-clang/alloca-clang.c"
	.file	2 "/home/zoltan/Develop/liballocs/tests/../include/uniqtype-defs.h"
	.file	3 "/home/zoltan/Develop/liballocs/include/malloc-meta.h"
	.file	4 "/home/zoltan/Develop/liballocs/include/liballocs_cil_inlines.h"
	.file	5 "/usr/lib/llvm-20/lib/clang/20/include/__stddef_ptrdiff_t.h"
	.file	6 "/usr/lib/llvm-20/lib/clang/20/include/__stddef_size_t.h"
	.file	7 "/usr/lib/llvm-20/lib/clang/20/include/__stddef_wchar_t.h"
	.text
	.globl	main                            # -- Begin function main
	.p2align	4
	.type	main,@function
main:                                   # @main
.Lfunc_begin0:
	.loc	1 40 0                          # alloca-clang.c:40:0
	.cfi_startproc
# %bb.0:
	pushq	%rbp
	.cfi_def_cfa_offset 16
	.cfi_offset %rbp, -16
	movq	%rsp, %rbp
	.cfi_def_cfa_register %rbp
.Ltmp0:
	pushq	%r14
	pushq	%rbx
	subq	$224, %rsp
	.cfi_offset %rbx, -32
	.cfi_offset %r14, -24
.Ltmp1:
	#DEBUG_VALUE: main:__liballocs_alloca_cleanup_local <- [DW_OP_constu 24, DW_OP_minus, DW_OP_deref] $rbp
	#DEBUG_VALUE: main:__liballocs_alloca_cleanup_local <- 0
	#DEBUG_VALUE: main:__cil_tmp9 <- 208
	.loc	1 41 3 prologue_end             # alloca-clang.c:41:3
	#APP
	   call .L__monalloca_alloca_label_alloca$2dclang$2ec_41_1_0
.L__monalloca_alloca_label_alloca$2dclang$2ec_41_1_0: 
pop %rcx

	#NO_APP
.Ltmp2:
	#DEBUG_VALUE: main:__cil_tmp8 <- $rcx
	#DEBUG_VALUE: __liballocs_notify_and_adjust_alloca:caller <- $rcx
	#DEBUG_VALUE: main:__cil_tmp10 <- [DW_OP_constu 240, DW_OP_minus, DW_OP_stack_value] $rbp
	#DEBUG_VALUE: __liballocs_notify_and_adjust_alloca:allocated <- [DW_OP_constu 240, DW_OP_minus, DW_OP_stack_value] $rbp
	#DEBUG_VALUE: __liballocs_notify_and_adjust_alloca:orig_size <- 168
	#DEBUG_VALUE: __liballocs_notify_and_adjust_alloca:tweaked_size <- 208
	#DEBUG_VALUE: __liballocs_notify_and_adjust_alloca:frame_counter <- [DW_OP_constu 24, DW_OP_minus, DW_OP_stack_value] $rbp
	.loc	4 145 3                         # include/liballocs_cil_inlines.h:145:3
	xorps	%xmm0, %xmm0
	movaps	%xmm0, -240(%rbp)
	movaps	%xmm0, -224(%rbp)
	movaps	%xmm0, -208(%rbp)
	movaps	%xmm0, -192(%rbp)
	movaps	%xmm0, -176(%rbp)
	movaps	%xmm0, -160(%rbp)
	movaps	%xmm0, -144(%rbp)
	movaps	%xmm0, -128(%rbp)
	movaps	%xmm0, -112(%rbp)
	movaps	%xmm0, -96(%rbp)
	movaps	%xmm0, -80(%rbp)
	movaps	%xmm0, -64(%rbp)
	movaps	%xmm0, -48(%rbp)
	leaq	-224(%rbp), %rbx
.Ltmp3:
	#DEBUG_VALUE: __liballocs_notify_and_adjust_alloca:header_effective_size <- [DW_OP_LLVM_arg 0, DW_OP_LLVM_arg 1, DW_OP_constu 240, DW_OP_minus, DW_OP_minus, DW_OP_stack_value] $rbx, $rbp
	#DEBUG_VALUE: __liballocs_notify_and_adjust_alloca:userchunk <- $rbx
	#DEBUG_VALUE: main:tmp <- $rbx
	#DEBUG_VALUE: main:a <- $rbx
	#DEBUG_VALUE: __liballocs_notify_and_adjust_alloca:non_header_size <- 192
	.loc	4 155 37                        # include/liballocs_cil_inlines.h:155:37
	movq	$192, -232(%rbp)
	.loc	4 165 18                        # include/liballocs_cil_inlines.h:165:18
	movq	$192, -24(%rbp)
.Ltmp4:
	#DEBUG_VALUE: main:__liballocs_alloca_cleanup_local <- [DW_OP_constu 24, DW_OP_minus, DW_OP_deref] $rbp
	#DEBUG_VALUE: __liballocs_notify_and_adjust_alloca:tmp <- $rbp
	.loc	4 113 3                         # include/liballocs_cil_inlines.h:113:3
	#APP
	movq %rsp, %r8

	#NO_APP
.Ltmp5:
	#DEBUG_VALUE: __liballocs_get_sp:our_sp <- $r8
	#DEBUG_VALUE: __liballocs_notify_and_adjust_alloca:tmp___0 <- $r8
	.loc	4 0 3 is_stmt 0                 # include/liballocs_cil_inlines.h:0:3
	leaq	-24(%rbp), %rdx
.Ltmp6:
	.loc	4 168 3 is_stmt 1               # include/liballocs_cil_inlines.h:168:3
	movl	$168, %esi
	movq	%rbx, %rdi
	movq	%rbp, %r9
	callq	__alloca_allocator_notify@PLT
.Ltmp7:
	.loc	1 42 13                         # alloca-clang.c:42:13
	movq	%rbx, %rdi
	callq	__liballocs_get_alloc_type@PLT
.Ltmp8:
	movq	%rax, %r14
.Ltmp9:
	#DEBUG_VALUE: main:tmp___0 <- $r14
	#DEBUG_VALUE: main:got_type <- $r14
	.loc	1 43 13                         # alloca-clang.c:43:13
	leaq	.L.str(%rip), %rsi
	movq	$-1, %rdi
	callq	dlsym@PLT
.Ltmp10:
	movq	%rax, %rbx
.Ltmp11:
	#DEBUG_LABEL: while_continue
	.loc	1 44 11                         # alloca-clang.c:44:11
	testq	%rax, %rax
	.loc	1 44 9 is_stmt 0                # alloca-clang.c:44:9
	je	.LBB0_1
.Ltmp12:
# %bb.2:
	#DEBUG_VALUE: main:__liballocs_alloca_cleanup_local <- [DW_OP_constu 24, DW_OP_minus, DW_OP_deref] $rbp
	#DEBUG_VALUE: main:__cil_tmp9 <- 208
	#DEBUG_VALUE: main:__cil_tmp10 <- [DW_OP_constu 240, DW_OP_minus, DW_OP_stack_value] $rbp
	#DEBUG_VALUE: main:tmp___0 <- $r14
	#DEBUG_VALUE: main:got_type <- $r14
	#DEBUG_LABEL: while_break
	#DEBUG_LABEL: while_continue___0
	.loc	1 45 11 is_stmt 1               # alloca-clang.c:45:11
	testq	%r14, %r14
	.loc	1 45 9 is_stmt 0                # alloca-clang.c:45:9
	je	.LBB0_3
.Ltmp13:
.LBB0_4:
	#DEBUG_VALUE: main:__liballocs_alloca_cleanup_local <- [DW_OP_constu 24, DW_OP_minus, DW_OP_deref] $rbp
	#DEBUG_VALUE: main:__cil_tmp9 <- 208
	#DEBUG_VALUE: main:__cil_tmp10 <- [DW_OP_constu 240, DW_OP_minus, DW_OP_stack_value] $rbp
	#DEBUG_VALUE: main:tmp___0 <- $r14
	#DEBUG_VALUE: main:got_type <- $r14
	#DEBUG_LABEL: while_break___0
	#DEBUG_LABEL: while_continue___1
	.loc	1 46 9 is_stmt 1                # alloca-clang.c:46:9
	testb	$1, 12(%r14)
	je	.LBB0_5
	jmp	.LBB0_7
.Ltmp14:
.LBB0_1:
	#DEBUG_VALUE: main:__liballocs_alloca_cleanup_local <- [DW_OP_constu 24, DW_OP_minus, DW_OP_deref] $rbp
	#DEBUG_VALUE: main:__cil_tmp9 <- 208
	#DEBUG_VALUE: main:__cil_tmp10 <- [DW_OP_constu 240, DW_OP_minus, DW_OP_stack_value] $rbp
	#DEBUG_VALUE: main:tmp___0 <- $r14
	#DEBUG_VALUE: main:got_type <- $r14
	.loc	1 44 7                          # alloca-clang.c:44:7
	leaq	.L.str.1(%rip), %rdi
	leaq	.L.str.2(%rip), %rsi
	leaq	.L.str.3(%rip), %rcx
	movl	$38, %edx
	callq	__assert_fail@PLT
.Ltmp15:
	#DEBUG_LABEL: while_break
	#DEBUG_LABEL: while_continue___0
	.loc	1 45 11                         # alloca-clang.c:45:11
	testq	%r14, %r14
	.loc	1 45 9 is_stmt 0                # alloca-clang.c:45:9
	jne	.LBB0_4
.Ltmp16:
.LBB0_3:
	#DEBUG_VALUE: main:__liballocs_alloca_cleanup_local <- [DW_OP_constu 24, DW_OP_minus, DW_OP_deref] $rbp
	#DEBUG_VALUE: main:__cil_tmp9 <- 208
	#DEBUG_VALUE: main:__cil_tmp10 <- [DW_OP_constu 240, DW_OP_minus, DW_OP_stack_value] $rbp
	#DEBUG_VALUE: main:tmp___0 <- $r14
	#DEBUG_VALUE: main:got_type <- $r14
	.loc	1 45 7                          # alloca-clang.c:45:7
	leaq	.L.str.4(%rip), %rdi
	leaq	.L.str.2(%rip), %rsi
	leaq	.L.str.3(%rip), %rcx
	movl	$39, %edx
	callq	__assert_fail@PLT
.Ltmp17:
	#DEBUG_LABEL: while_break___0
	#DEBUG_LABEL: while_continue___1
	.loc	1 46 9 is_stmt 1                # alloca-clang.c:46:9
	testb	$1, 12(%r14)
	jne	.LBB0_7
.Ltmp18:
.LBB0_5:
	#DEBUG_VALUE: main:__liballocs_alloca_cleanup_local <- [DW_OP_constu 24, DW_OP_minus, DW_OP_deref] $rbp
	#DEBUG_VALUE: main:__cil_tmp9 <- 208
	#DEBUG_VALUE: main:__cil_tmp10 <- [DW_OP_constu 240, DW_OP_minus, DW_OP_stack_value] $rbp
	#DEBUG_VALUE: main:tmp___0 <- $r14
	#DEBUG_VALUE: main:got_type <- $r14
	.loc	1 46 7 is_stmt 0                # alloca-clang.c:46:7
	leaq	.L.str.5(%rip), %rdi
	leaq	.L.str.2(%rip), %rsi
	leaq	.L.str.3(%rip), %rcx
	movl	$40, %edx
	callq	__assert_fail@PLT
.Ltmp19:
	.loc	1 47 29 is_stmt 1               # alloca-clang.c:47:29
	testb	$1, 12(%r14)
.Ltmp20:
	#DEBUG_LABEL: while_break___1
	#DEBUG_LABEL: while_continue___2
	jne	.LBB0_7
.Ltmp21:
# %bb.6:
	#DEBUG_VALUE: main:__liballocs_alloca_cleanup_local <- [DW_OP_constu 24, DW_OP_minus, DW_OP_deref] $rbp
	#DEBUG_VALUE: main:__cil_tmp9 <- 208
	#DEBUG_VALUE: main:__cil_tmp10 <- [DW_OP_constu 240, DW_OP_minus, DW_OP_stack_value] $rbp
	#DEBUG_VALUE: main:tmp___0 <- $r14
	#DEBUG_VALUE: main:got_type <- $r14
	.loc	1 0 29 is_stmt 0                # alloca-clang.c:0:29
	xorl	%eax, %eax
	.loc	1 47 123                        # alloca-clang.c:47:123
	cmpq	%rbx, %rax
	.loc	1 47 9                          # alloca-clang.c:47:9
	jne	.LBB0_9
	jmp	.LBB0_10
.Ltmp22:
.LBB0_7:                                # %.thread
	#DEBUG_VALUE: main:__liballocs_alloca_cleanup_local <- [DW_OP_constu 24, DW_OP_minus, DW_OP_deref] $rbp
	#DEBUG_VALUE: main:__cil_tmp9 <- 208
	#DEBUG_VALUE: main:__cil_tmp10 <- [DW_OP_constu 240, DW_OP_minus, DW_OP_stack_value] $rbp
	#DEBUG_VALUE: main:tmp___0 <- $r14
	#DEBUG_VALUE: main:got_type <- $r14
	.loc	1 47 85 is_stmt 1               # alloca-clang.c:47:85
	movq	24(%r14), %rax
	.loc	1 47 123 is_stmt 0              # alloca-clang.c:47:123
	cmpq	%rbx, %rax
	.loc	1 47 9                          # alloca-clang.c:47:9
	je	.LBB0_10
.Ltmp23:
.LBB0_9:
	#DEBUG_VALUE: main:__liballocs_alloca_cleanup_local <- [DW_OP_constu 24, DW_OP_minus, DW_OP_deref] $rbp
	#DEBUG_VALUE: main:__cil_tmp9 <- 208
	#DEBUG_VALUE: main:__cil_tmp10 <- [DW_OP_constu 240, DW_OP_minus, DW_OP_stack_value] $rbp
	#DEBUG_VALUE: main:tmp___0 <- $r14
	#DEBUG_VALUE: main:got_type <- $r14
	.loc	1 47 7                          # alloca-clang.c:47:7
	leaq	.L.str.6(%rip), %rdi
	leaq	.L.str.2(%rip), %rsi
	leaq	.L.str.3(%rip), %rcx
	movl	$41, %edx
	callq	__assert_fail@PLT
.Ltmp24:
.LBB0_10:
	#DEBUG_VALUE: main:__liballocs_alloca_cleanup_local <- [DW_OP_constu 24, DW_OP_minus, DW_OP_deref] $rbp
	#DEBUG_VALUE: main:__cil_tmp9 <- 208
	#DEBUG_VALUE: main:__cil_tmp10 <- [DW_OP_constu 240, DW_OP_minus, DW_OP_stack_value] $rbp
	#DEBUG_VALUE: main:tmp___0 <- $r14
	#DEBUG_VALUE: main:got_type <- $r14
	#DEBUG_LABEL: while_break___2
	#DEBUG_VALUE: __liballocs_alloca_caller_frame_cleanup:counter <- [DW_OP_constu 24, DW_OP_minus, DW_OP_stack_value] $rbp
	#DEBUG_VALUE: __liballocs_alloca_caller_frame_cleanup:tmp <- $rbp
	.loc	1 0 7                           # alloca-clang.c:0:7
	leaq	-24(%rbp), %rdi
.Ltmp25:
	.loc	4 102 3 is_stmt 1               # include/liballocs_cil_inlines.h:102:3
	movq	%rbp, %rsi
	callq	__liballocs_unindex_stack_objects_counted_by@PLT
.Ltmp26:
	.loc	1 51 1                          # alloca-clang.c:51:1
	xorl	%eax, %eax
	.loc	1 51 1 epilogue_begin is_stmt 0 # alloca-clang.c:51:1
	addq	$224, %rsp
	popq	%rbx
	popq	%r14
.Ltmp27:
	popq	%rbp
	.cfi_def_cfa %rsp, 8
	retq
.Ltmp28:
.Lfunc_end0:
	.size	main, .Lfunc_end0-main
	.cfi_endproc
                                        # -- End function
	.type	.L.str,@object                  # @.str
	.section	.rodata.str1.1,"aMS",@progbits,1
.L.str:
	.asciz	"__uniqtype__int$$32"
	.size	.L.str, 20

	.type	.L.str.1,@object                # @.str.1
.L.str.1:
	.asciz	"int_type"
	.size	.L.str.1, 9

	.type	.L.str.2,@object                # @.str.2
.L.str.2:
	.asciz	"alloca-clang.c"
	.size	.L.str.2, 15

	.type	.L.str.3,@object                # @.str.3
.L.str.3:
	.asciz	"main"
	.size	.L.str.3, 5

	.type	.L.str.4,@object                # @.str.4
.L.str.4:
	.asciz	"got_type"
	.size	.L.str.4, 9

	.type	.L.str.5,@object                # @.str.5
.L.str.5:
	.asciz	"UNIQTYPE_IS_ARRAY_TYPE(got_type)"
	.size	.L.str.5, 33

	.type	.L.str.6,@object                # @.str.6
.L.str.6:
	.asciz	"UNIQTYPE_ARRAY_ELEMENT_TYPE(got_type) == int_type"
	.size	.L.str.6, 50

	.section	".note.GNU-stack","",@progbits